target datalayout = "e-m:e-p270:32:32-p271:32:32-p272:64:64-i64:64-i128:128-f80:128-n8:16:32:64-S128"
target triple = "x86_64-unknown-linux-gnu"

%struct.QIOChannelWebsock = type { %struct.QIOChannel, ptr, %struct.Buffer, %struct.Buffer, %struct.Buffer, i64, i64, %union.QIOChannelWebsockMask, i32, ptr, i32, i8 }
%struct.QIOChannel = type { %struct.Object, i32, ptr, ptr, ptr, ptr, ptr, i8 }
%struct.Object = type { ptr, ptr, ptr, i32, ptr }
%struct.Buffer = type { ptr, i64, i64, i64, ptr }
%union.QIOChannelWebsockMask = type { i32 }
%struct.iovec = type { ptr, i64 }

; Function Attrs: nounwind sspstrong uwtable
define internal i64 @qio_channel_websock_write_wire(ptr noundef %ioc, ptr noundef %errp) #0 {
entry:
  %retval = alloca i64, align 8
  %ioc.addr = alloca ptr, align 8
  %errp.addr = alloca ptr, align 8
  %ret = alloca i64, align 8
  %done = alloca i64, align 8
  store ptr %ioc, ptr %ioc.addr, align 8
  store ptr %errp, ptr %errp.addr, align 8
  store i64 0, ptr %done, align 8
  br label %while.cond

while.cond:                                       ; preds = %if.end14, %entry
  %0 = load ptr, ptr %ioc.addr, align 8
  %encoutput = getelementptr inbounds %struct.QIOChannelWebsock, ptr %0, i32 0, i32 3
  %offset = getelementptr inbounds %struct.Buffer, ptr %encoutput, i32 0, i32 2
  %1 = load i64, ptr %offset, align 8
  %cmp = icmp ugt i64 %1, 0
  br i1 %cmp, label %while.body, label %while.end

while.body:                                       ; preds = %while.cond
  %2 = load ptr, ptr %ioc.addr, align 8
  %master = getelementptr inbounds %struct.QIOChannelWebsock, ptr %2, i32 0, i32 1
  %3 = load ptr, ptr %master, align 8
  %4 = load ptr, ptr %ioc.addr, align 8
  %encoutput1 = getelementptr inbounds %struct.QIOChannelWebsock, ptr %4, i32 0, i32 3
  %buffer = getelementptr inbounds %struct.Buffer, ptr %encoutput1, i32 0, i32 4
  %5 = load ptr, ptr %buffer, align 8
  %6 = load ptr, ptr %ioc.addr, align 8
  %encoutput2 = getelementptr inbounds %struct.QIOChannelWebsock, ptr %6, i32 0, i32 3
  %offset3 = getelementptr inbounds %struct.Buffer, ptr %encoutput2, i32 0, i32 2
  %7 = load i64, ptr %offset3, align 8
  %8 = load ptr, ptr %errp.addr, align 8
  %call = call i64 @qio_channel_write(ptr noundef %3, ptr noundef %5, i64 noundef %7, ptr noundef %8)
  store i64 %call, ptr %ret, align 8
  %9 = load i64, ptr %ret, align 8
  %cmp4 = icmp slt i64 %9, 0
  br i1 %cmp4, label %if.then, label %if.end

if.then:                                          ; preds = %while.body
  %10 = load i64, ptr %ret, align 8
  %cmp5 = icmp eq i64 %10, -2
  br i1 %cmp5, label %land.lhs.true, label %if.else

land.lhs.true:                                    ; preds = %if.then
  %11 = load i64, ptr %done, align 8
  %cmp6 = icmp sgt i64 %11, 0
  br i1 %cmp6, label %if.then7, label %if.else

if.then7:                                         ; preds = %land.lhs.true
  %12 = load i64, ptr %done, align 8
  store i64 %12, ptr %retval, align 8
  br label %return

if.else:                                          ; preds = %land.lhs.true, %if.then
  %13 = load i64, ptr %ret, align 8
  store i64 %13, ptr %retval, align 8
  br label %return

if.end:                                           ; preds = %while.body
  %14 = load ptr, ptr %ioc.addr, align 8
  %encoutput8 = getelementptr inbounds %struct.QIOChannelWebsock, ptr %14, i32 0, i32 3
  %15 = load i64, ptr %ret, align 8
  call void @buffer_advance(ptr noundef %encoutput8, i64 noundef %15)
  %16 = load i64, ptr %ret, align 8
  %17 = load i64, ptr %done, align 8
  %add = add i64 %17, %16
  store i64 %add, ptr %done, align 8
  %18 = load ptr, ptr %ioc.addr, align 8
  %pong_remain = getelementptr inbounds %struct.QIOChannelWebsock, ptr %18, i32 0, i32 6
  %19 = load i64, ptr %pong_remain, align 8
  %20 = load i64, ptr %ret, align 8
  %cmp9 = icmp ult i64 %19, %20
  br i1 %cmp9, label %if.then10, label %if.else12

if.then10:                                        ; preds = %if.end
  %21 = load ptr, ptr %ioc.addr, align 8
  %pong_remain11 = getelementptr inbounds %struct.QIOChannelWebsock, ptr %21, i32 0, i32 6
  store i64 0, ptr %pong_remain11, align 8
  br label %if.end14

if.else12:                                        ; preds = %if.end
  %22 = load i64, ptr %ret, align 8
  %23 = load ptr, ptr %ioc.addr, align 8
  %pong_remain13 = getelementptr inbounds %struct.QIOChannelWebsock, ptr %23, i32 0, i32 6
  %24 = load i64, ptr %pong_remain13, align 8
  %sub = sub i64 %24, %22
  store i64 %sub, ptr %pong_remain13, align 8
  br label %if.end14

if.end14:                                         ; preds = %if.else12, %if.then10
  br label %while.cond, !llvm.loop !13

while.end:                                        ; preds = %while.cond
  %25 = load i64, ptr %done, align 8
  store i64 %25, ptr %retval, align 8
  br label %return

return:                                           ; preds = %while.end, %if.else, %if.then7
  %26 = load i64, ptr %retval, align 8
  ret i64 %26
}

; Function Attrs: nounwind sspstrong uwtable
define internal void @cpu_to_be16s(ptr noundef %p) #0 {
entry:
  %p.addr = alloca ptr, align 8
  store ptr %p, ptr %p.addr, align 8
  br label %do.body

do.body:                                          ; preds = %entry
  %0 = load ptr, ptr %p.addr, align 8
  %1 = load i16, ptr %0, align 2
  %2 = call i16 @llvm.bswap.i16(i16 %1)
  %3 = load ptr, ptr %p.addr, align 8
  store i16 %2, ptr %3, align 2
  br label %do.end

do.end:                                           ; preds = %do.body
  ret void
}

; Function Attrs: nounwind sspstrong uwtable
define internal void @qio_channel_websock_write_close(ptr noundef %ioc, i16 noundef zeroext %code, ptr noundef %reason) #0 {
entry:
  %ioc.addr = alloca ptr, align 8
  %code.addr = alloca i16, align 2
  %reason.addr = alloca ptr, align 8
  %iov = alloca [2 x %struct.iovec], align 16
  %niov = alloca i64, align 8
  %size = alloca i64, align 8
  store ptr %ioc, ptr %ioc.addr, align 8
  store i16 %code, ptr %code.addr, align 2
  store ptr %reason, ptr %reason.addr, align 8
  %arrayinit.begin = getelementptr inbounds [2 x %struct.iovec], ptr %iov, i64 0, i64 0
  %iov_base = getelementptr inbounds %struct.iovec, ptr %arrayinit.begin, i32 0, i32 0
  store ptr %code.addr, ptr %iov_base, align 16
  %iov_len = getelementptr inbounds %struct.iovec, ptr %arrayinit.begin, i32 0, i32 1
  store i64 2, ptr %iov_len, align 8
  %arrayinit.start = getelementptr inbounds %struct.iovec, ptr %arrayinit.begin, i64 1
  %arrayinit.end = getelementptr inbounds %struct.iovec, ptr %arrayinit.begin, i64 2
  br label %arrayinit.body

arrayinit.body:                                   ; preds = %arrayinit.body, %entry
  %arrayinit.cur = phi ptr [ %arrayinit.start, %entry ], [ %arrayinit.next, %arrayinit.body ]
  call void @llvm.memset.p0.i64(ptr align 16 %arrayinit.cur, i8 0, i64 16, i1 false)
  %arrayinit.next = getelementptr inbounds %struct.iovec, ptr %arrayinit.cur, i64 1
  %arrayinit.done = icmp eq ptr %arrayinit.next, %arrayinit.end
  br i1 %arrayinit.done, label %arrayinit.end1, label %arrayinit.body

arrayinit.end1:                                   ; preds = %arrayinit.body
  store i64 1, ptr %niov, align 8
  %arrayidx = getelementptr [2 x %struct.iovec], ptr %iov, i64 0, i64 0
  %iov_len2 = getelementptr inbounds %struct.iovec, ptr %arrayidx, i32 0, i32 1
  %0 = load i64, ptr %iov_len2, align 8
  store i64 %0, ptr %size, align 8
  call void @cpu_to_be16s(ptr noundef %code.addr)
  %1 = load ptr, ptr %reason.addr, align 8
  %tobool = icmp ne ptr %1, null
  br i1 %tobool, label %if.then, label %if.end

if.then:                                          ; preds = %arrayinit.end1
  %2 = load ptr, ptr %reason.addr, align 8
  %arrayidx3 = getelementptr [2 x %struct.iovec], ptr %iov, i64 0, i64 1
  %iov_base4 = getelementptr inbounds %struct.iovec, ptr %arrayidx3, i32 0, i32 0
  store ptr %2, ptr %iov_base4, align 16
  %3 = load ptr, ptr %reason.addr, align 8
  %call = call i64 @strlen(ptr noundef %3) #11
  %arrayidx5 = getelementptr [2 x %struct.iovec], ptr %iov, i64 0, i64 1
  %iov_len6 = getelementptr inbounds %struct.iovec, ptr %arrayidx5, i32 0, i32 1
  store i64 %call, ptr %iov_len6, align 8
  %arrayidx7 = getelementptr [2 x %struct.iovec], ptr %iov, i64 0, i64 1
  %iov_len8 = getelementptr inbounds %struct.iovec, ptr %arrayidx7, i32 0, i32 1
  %4 = load i64, ptr %iov_len8, align 8
  %5 = load i64, ptr %size, align 8
  %add = add i64 %5, %4
  store i64 %add, ptr %size, align 8
  %6 = load i64, ptr %niov, align 8
  %inc = add i64 %6, 1
  store i64 %inc, ptr %niov, align 8
  br label %if.end

if.end:                                           ; preds = %if.then, %arrayinit.end1
  %7 = load ptr, ptr %ioc.addr, align 8
  %arraydecay = getelementptr inbounds [2 x %struct.iovec], ptr %iov, i64 0, i64 0
  %8 = load i64, ptr %niov, align 8
  %9 = load i64, ptr %size, align 8
  call void @qio_channel_websock_encode(ptr noundef %7, i8 noundef zeroext 8, ptr noundef %arraydecay, i64 noundef %8, i64 noundef %9)
  %10 = load ptr, ptr %ioc.addr, align 8
  %call9 = call i64 @qio_channel_websock_write_wire(ptr noundef %10, ptr noundef null)
  %11 = load ptr, ptr %ioc.addr, align 8
  %master = getelementptr inbounds %struct.QIOChannelWebsock, ptr %11, i32 0, i32 1
  %12 = load ptr, ptr %master, align 8
  %call10 = call i32 @qio_channel_shutdown(ptr noundef %12, i32 noundef 3, ptr noundef null)
  ret void
}