; Function Attrs: nounwind sspstrong uwtable
define internal fastcc void @qio_channel_websock_write_close(ptr noundef %ioc, i16 noundef zeroext range(i16 1000, 1012) %code, ptr noundef %reason) unnamed_addr #0 {
entry:
  %code.addr = alloca i16, align 2
  %iov = alloca [2 x %struct.iovec], align 16
  store ptr %code.addr, ptr %iov, align 16
  %iov_len = getelementptr inbounds nuw i8, ptr %iov, i64 8
  store i64 2, ptr %iov_len, align 8
  %arrayinit.cur.ptr = getelementptr inbounds nuw i8, ptr %iov, i64 16
  call void @llvm.memset.p0.i64(ptr noundef nonnull align 16 dereferenceable(16) %arrayinit.cur.ptr, i8 0, i64 16, i1 false)
  %0 = call i16 @llvm.bswap.i16(i16 %code)
  store i16 %0, ptr %code.addr, align 2
  %tobool.not = icmp eq ptr %reason, null
  br i1 %tobool.not, label %arrayinit.end1.split, label %if.then

arrayinit.end1.split:                             ; preds = %entry
  call fastcc void @qio_channel_websock_encode(ptr noundef %ioc, i8 noundef zeroext 8, ptr noundef nonnull %iov, i64 noundef 1, i64 noundef 2)
  br label %if.end

if.then:                                          ; preds = %entry
  store ptr %reason, ptr %arrayinit.cur.ptr, align 16
  %call = call i64 @strlen(ptr noundef nonnull dereferenceable(1) %reason) #16
  %iov_len6 = getelementptr inbounds nuw i8, ptr %iov, i64 24
  store i64 %call, ptr %iov_len6, align 8
  %add = add i64 %call, 2
  call fastcc void @qio_channel_websock_encode(ptr noundef %ioc, i8 noundef zeroext 8, ptr noundef nonnull %iov, i64 noundef 2, i64 noundef %add)
  br label %if.end

if.end:                                           ; preds = %arrayinit.end1.split, %if.then
  %encoutput.i = getelementptr inbounds nuw i8, ptr %ioc, i64 144
  %offset.i = getelementptr inbounds nuw i8, ptr %ioc, i64 160
  %1 = load i64, ptr %offset.i, align 8
  %cmp.not19.i = icmp eq i64 %1, 0
  br i1 %cmp.not19.i, label %qio_channel_websock_write_wire.exit, label %while.body.lr.ph.i

while.body.lr.ph.i:                               ; preds = %if.end
  %master.i = getelementptr inbounds nuw i8, ptr %ioc, i64 96
  %buffer.i = getelementptr inbounds nuw i8, ptr %ioc, i64 176
  %pong_remain.i = getelementptr inbounds nuw i8, ptr %ioc, i64 232
  br label %while.body.i

while.body.i:                                     ; preds = %if.end.i, %while.body.lr.ph.i
  %2 = phi i64 [ %1, %while.body.lr.ph.i ], [ %6, %if.end.i ]
  %3 = load ptr, ptr %master.i, align 8
  %4 = load ptr, ptr %buffer.i, align 8
  %call.i = call i64 @qio_channel_write(ptr noundef %3, ptr noundef %4, i64 noundef %2, ptr noundef null) #15
  %cmp4.i = icmp slt i64 %call.i, 0
  br i1 %cmp4.i, label %qio_channel_websock_write_wire.exit, label %if.end.i

if.end.i:                                         ; preds = %while.body.i
  call void @buffer_advance(ptr noundef nonnull %encoutput.i, i64 noundef %call.i) #15
  %5 = load i64, ptr %pong_remain.i, align 8
  %storemerge.i = call i64 @llvm.usub.sat.i64(i64 %5, i64 %call.i)
  store i64 %storemerge.i, ptr %pong_remain.i, align 8
  %6 = load i64, ptr %offset.i, align 8
  %cmp.not.i = icmp eq i64 %6, 0
  br i1 %cmp.not.i, label %qio_channel_websock_write_wire.exit, label %while.body.i, !llvm.loop !10

qio_channel_websock_write_wire.exit:              ; preds = %while.body.i, %if.end.i, %if.end
  %master = getelementptr inbounds nuw i8, ptr %ioc, i64 96
  %7 = load ptr, ptr %master, align 8
  %call10 = call i32 @qio_channel_shutdown(ptr noundef %7, i32 noundef 3, ptr noundef null) #15
  ret void
}